; Function Attrs: nounwind uwtable
define range(i32 0, 3) i32 @curl_global_init_mem(i64 noundef %0, ptr noundef %1, ptr noundef %2, ptr noundef %3, ptr noundef %4, ptr noundef %5) local_unnamed_addr #5 {
  %7 = icmp ne ptr %1, null
  %8 = icmp ne ptr %2, null
  %or.cond = and i1 %7, %8
  %9 = icmp ne ptr %3, null
  %or.cond3 = and i1 %or.cond, %9
  %10 = icmp ne ptr %4, null
  %or.cond5 = and i1 %or.cond3, %10
  %11 = icmp ne ptr %5, null
  %or.cond7 = and i1 %or.cond5, %11
  br i1 %or.cond7, label %12, label %29

12:                                               ; preds = %6
  %13 = atomicrmw xchg ptr @s_lock, i32 1 acquire, align 4
  %.not2.i = icmp eq i32 %13, 0
  br i1 %.not2.i, label %curl_simple_lock_lock.exit, label %.preheader.i

.loopexit.i:                                      ; preds = %.lr.ph.i, %.preheader.i
  %14 = atomicrmw xchg ptr @s_lock, i32 1 acquire, align 4
  %.not.i = icmp eq i32 %14, 0
  br i1 %.not.i, label %curl_simple_lock_lock.exit, label %.preheader.i

.preheader.i:                                     ; preds = %12, %.loopexit.i
  %15 = load atomic i32, ptr @s_lock monotonic, align 4
  %.not41.i = icmp eq i32 %15, 0
  br i1 %.not41.i, label %.loopexit.i, label %.lr.ph.i

.lr.ph.i:                                         ; preds = %.preheader.i, %.lr.ph.i
  tail call void @llvm.x86.sse2.pause()
  %16 = load atomic i32, ptr @s_lock monotonic, align 4
  %.not4.i = icmp eq i32 %16, 0
  br i1 %.not4.i, label %.loopexit.i, label %.lr.ph.i, !llvm.loop !3

curl_simple_lock_lock.exit:                       ; preds = %.loopexit.i, %12
  %17 = load i32, ptr @initialized, align 4, !tbaa !5
  %.not = icmp eq i32 %17, 0
  br i1 %.not, label %20, label %18

18:                                               ; preds = %curl_simple_lock_lock.exit
  %19 = add i32 %17, 1
  br label %.sink.split.sink.split

20:                                               ; preds = %curl_simple_lock_lock.exit
  store ptr %1, ptr @Curl_cmalloc, align 8, !tbaa !9
  store ptr %2, ptr @Curl_cfree, align 8, !tbaa !9
  store ptr %4, ptr @Curl_cstrdup, align 8, !tbaa !9
  store ptr %3, ptr @Curl_crealloc, align 8, !tbaa !9
  store ptr %5, ptr @Curl_ccalloc, align 8, !tbaa !9
  store i32 1, ptr @initialized, align 4, !tbaa !5
  %21 = tail call i32 @Curl_trc_init() #11
  %.not3.i = icmp eq i32 %21, 0
  br i1 %.not3.i, label %22, label %26

22:                                               ; preds = %20
  %23 = tail call i32 @Curl_ssl_init() #11
  %.not4.i25 = icmp eq i32 %23, 0
  br i1 %.not4.i25, label %26, label %24

24:                                               ; preds = %22
  %25 = tail call i32 @Curl_resolver_global_init() #11
  %.not5.i = icmp eq i32 %25, 0
  br i1 %.not5.i, label %.sink.split, label %26

26:                                               ; preds = %24, %22, %20
  %27 = load i32, ptr @initialized, align 4, !tbaa !5
  %28 = add i32 %27, -1
  br label %.sink.split.sink.split

.sink.split.sink.split:                           ; preds = %18, %26
  %.sink = phi i32 [ %28, %26 ], [ %19, %18 ]
  %.0.ph.ph = phi i32 [ 2, %26 ], [ 0, %18 ]
  store i32 %.sink, ptr @initialized, align 4, !tbaa !5
  br label %.sink.split

.sink.split:                                      ; preds = %.sink.split.sink.split, %24
  %.0.ph = phi i32 [ 0, %24 ], [ %.0.ph.ph, %.sink.split.sink.split ]
  store atomic i32 0, ptr @s_lock release, align 4
  br label %29

29:                                               ; preds = %.sink.split, %6
  %.0 = phi i32 [ 2, %6 ], [ %.0.ph, %.sink.split ]
  ret i32 %.0
}